; ModuleID = '15/1.c'
source_filename = "15/1.c"
target datalayout = "e-m:e-p270:32:32-p271:32:32-p272:64:64-i64:64-f80:128-n8:16:32:64-S128"
target triple = "x86_64-pc-linux-gnu"

@.str = private unnamed_addr constant [3 x i8] c"%d\00", align 1

; Function Attrs: noinline nounwind uwtable
define dso_local i32 @main() #0 {
  %1 = alloca i32, align 4
  %2 = alloca [1000 x [1000 x i32]], align 16
  %3 = alloca i32, align 4
  %4 = alloca i32, align 4
  %5 = alloca i32, align 4
  %6 = alloca i32, align 4
  %7 = alloca i32, align 4
  %8 = alloca i32, align 4
  %9 = alloca i32, align 4
  %10 = alloca i32, align 4
  %11 = alloca i32, align 4
  store i32 0, i32* %1, align 4
  %12 = call i32 (i8*, ...) @__isoc99_scanf(i8* getelementptr inbounds ([3 x i8], [3 x i8]* @.str, i64 0, i64 0), i32* %3)
  store i32 0, i32* %4, align 4
  br label %13

13:                                               ; preds = %34, %0
  %14 = load i32, i32* %4, align 4
  %15 = load i32, i32* %3, align 4
  %16 = icmp slt i32 %14, %15
  br i1 %16, label %17, label %37

17:                                               ; preds = %13
  store i32 0, i32* %5, align 4
  br label %18

18:                                               ; preds = %30, %17
  %19 = load i32, i32* %5, align 4
  %20 = load i32, i32* %3, align 4
  %21 = icmp slt i32 %19, %20
  br i1 %21, label %22, label %33

22:                                               ; preds = %18
  %23 = load i32, i32* %4, align 4
  %24 = sext i32 %23 to i64
  %25 = getelementptr inbounds [1000 x [1000 x i32]], [1000 x [1000 x i32]]* %2, i64 0, i64 %24
  %26 = load i32, i32* %5, align 4
  %27 = sext i32 %26 to i64
  %28 = getelementptr inbounds [1000 x i32], [1000 x i32]* %25, i64 0, i64 %27
  %29 = call i32 (i8*, ...) @__isoc99_scanf(i8* getelementptr inbounds ([3 x i8], [3 x i8]* @.str, i64 0, i64 0), i32* %28)
  br label %30

30:                                               ; preds = %22
  %31 = load i32, i32* %5, align 4
  %32 = add nsw i32 %31, 1
  store i32 %32, i32* %5, align 4
  br label %18

33:                                               ; preds = %18
  br label %34

34:                                               ; preds = %33
  %35 = load i32, i32* %4, align 4
  %36 = add nsw i32 %35, 1
  store i32 %36, i32* %4, align 4
  br label %13

37:                                               ; preds = %13
  store i32 0, i32* %11, align 4
  store i32 0, i32* %4, align 4
  br label %38

38:                                               ; preds = %68, %37
  %39 = load i32, i32* %4, align 4
  %40 = load i32, i32* %3, align 4
  %41 = icmp slt i32 %39, %40
  br i1 %41, label %42, label %71

42:                                               ; preds = %38
  store i32 0, i32* %5, align 4
  br label %43

43:                                               ; preds = %60, %42
  %44 = load i32, i32* %5, align 4
  %45 = load i32, i32* %3, align 4
  %46 = icmp slt i32 %44, %45
  br i1 %46, label %47, label %63

47:                                               ; preds = %43
  %48 = load i32, i32* %4, align 4
  %49 = sext i32 %48 to i64
  %50 = getelementptr inbounds [1000 x [1000 x i32]], [1000 x [1000 x i32]]* %2, i64 0, i64 %49
  %51 = load i32, i32* %5, align 4
  %52 = sext i32 %51 to i64
  %53 = getelementptr inbounds [1000 x i32], [1000 x i32]* %50, i64 0, i64 %52
  %54 = load i32, i32* %53, align 4
  %55 = icmp eq i32 %54, 0
  br i1 %55, label %56, label %59

56:                                               ; preds = %47
  %57 = load i32, i32* %4, align 4
  store i32 %57, i32* %7, align 4
  %58 = load i32, i32* %5, align 4
  store i32 %58, i32* %8, align 4
  store i32 1, i32* %11, align 4
  br label %63

59:                                               ; preds = %47
  br label %60

60:                                               ; preds = %59
  %61 = load i32, i32* %5, align 4
  %62 = add nsw i32 %61, 1
  store i32 %62, i32* %5, align 4
  br label %43

63:                                               ; preds = %56, %43
  %64 = load i32, i32* %11, align 4
  %65 = icmp ne i32 %64, 0
  br i1 %65, label %66, label %67

66:                                               ; preds = %63
  br label %71

67:                                               ; preds = %63
  br label %68

68:                                               ; preds = %67
  %69 = load i32, i32* %4, align 4
  %70 = add nsw i32 %69, 1
  store i32 %70, i32* %4, align 4
  br label %38

71:                                               ; preds = %66, %38
  %72 = load i32, i32* %7, align 4
  store i32 %72, i32* %4, align 4
  br label %73

73:                                               ; preds = %107, %71
  %74 = load i32, i32* %4, align 4
  %75 = load i32, i32* %3, align 4
  %76 = icmp slt i32 %74, %75
  br i1 %76, label %77, label %110

77:                                               ; preds = %73
  %78 = load i32, i32* %4, align 4
  %79 = load i32, i32* %3, align 4
  %80 = sub nsw i32 %79, 1
  %81 = icmp eq i32 %78, %80
  br i1 %81, label %82, label %93

82:                                               ; preds = %77
  %83 = load i32, i32* %4, align 4
  %84 = sext i32 %83 to i64
  %85 = getelementptr inbounds [1000 x [1000 x i32]], [1000 x [1000 x i32]]* %2, i64 0, i64 %84
  %86 = load i32, i32* %8, align 4
  %87 = sext i32 %86 to i64
  %88 = getelementptr inbounds [1000 x i32], [1000 x i32]* %85, i64 0, i64 %87
  %89 = load i32, i32* %88, align 4
  %90 = icmp eq i32 %89, 0
  br i1 %90, label %91, label %93

91:                                               ; preds = %82
  %92 = load i32, i32* %4, align 4
  store i32 %92, i32* %9, align 4
  br label %106

93:                                               ; preds = %82, %77
  %94 = load i32, i32* %4, align 4
  %95 = sext i32 %94 to i64
  %96 = getelementptr inbounds [1000 x [1000 x i32]], [1000 x [1000 x i32]]* %2, i64 0, i64 %95
  %97 = load i32, i32* %8, align 4
  %98 = sext i32 %97 to i64
  %99 = getelementptr inbounds [1000 x i32], [1000 x i32]* %96, i64 0, i64 %98
  %100 = load i32, i32* %99, align 4
  %101 = icmp ne i32 %100, 0
  br i1 %101, label %102, label %105

102:                                              ; preds = %93
  %103 = load i32, i32* %4, align 4
  %104 = sub nsw i32 %103, 1
  store i32 %104, i32* %9, align 4
  br label %110

105:                                              ; preds = %93
  br label %106

106:                                              ; preds = %105, %91
  br label %107

107:                                              ; preds = %106
  %108 = load i32, i32* %4, align 4
  %109 = add nsw i32 %108, 1
  store i32 %109, i32* %4, align 4
  br label %73

110:                                              ; preds = %102, %73
  %111 = load i32, i32* %8, align 4
  store i32 %111, i32* %5, align 4
  br label %112

112:                                              ; preds = %146, %110
  %113 = load i32, i32* %5, align 4
  %114 = load i32, i32* %3, align 4
  %115 = icmp slt i32 %113, %114
  br i1 %115, label %116, label %149

116:                                              ; preds = %112
  %117 = load i32, i32* %5, align 4
  %118 = load i32, i32* %3, align 4
  %119 = sub nsw i32 %118, 1
  %120 = icmp eq i32 %117, %119
  br i1 %120, label %121, label %132

121:                                              ; preds = %116
  %122 = load i32, i32* %7, align 4
  %123 = sext i32 %122 to i64
  %124 = getelementptr inbounds [1000 x [1000 x i32]], [1000 x [1000 x i32]]* %2, i64 0, i64 %123
  %125 = load i32, i32* %5, align 4
  %126 = sext i32 %125 to i64
  %127 = getelementptr inbounds [1000 x i32], [1000 x i32]* %124, i64 0, i64 %126
  %128 = load i32, i32* %127, align 4
  %129 = icmp eq i32 %128, 0
  br i1 %129, label %130, label %132

130:                                              ; preds = %121
  %131 = load i32, i32* %4, align 4
  store i32 %131, i32* %10, align 4
  br label %145

132:                                              ; preds = %121, %116
  %133 = load i32, i32* %7, align 4
  %134 = sext i32 %133 to i64
  %135 = getelementptr inbounds [1000 x [1000 x i32]], [1000 x [1000 x i32]]* %2, i64 0, i64 %134
  %136 = load i32, i32* %5, align 4
  %137 = sext i32 %136 to i64
  %138 = getelementptr inbounds [1000 x i32], [1000 x i32]* %135, i64 0, i64 %137
  %139 = load i32, i32* %138, align 4
  %140 = icmp ne i32 %139, 0
  br i1 %140, label %141, label %144

141:                                              ; preds = %132
  %142 = load i32, i32* %5, align 4
  %143 = sub nsw i32 %142, 1
  store i32 %143, i32* %10, align 4
  br label %149

144:                                              ; preds = %132
  br label %145

145:                                              ; preds = %144, %130
  br label %146

146:                                              ; preds = %145
  %147 = load i32, i32* %5, align 4
  %148 = add nsw i32 %147, 1
  store i32 %148, i32* %5, align 4
  br label %112

149:                                              ; preds = %141, %112
  %150 = load i32, i32* %9, align 4
  %151 = load i32, i32* %7, align 4
  %152 = sub nsw i32 %150, %151
  %153 = sub nsw i32 %152, 1
  %154 = load i32, i32* %10, align 4
  %155 = load i32, i32* %8, align 4
  %156 = sub nsw i32 %154, %155
  %157 = sub nsw i32 %156, 1
  %158 = mul nsw i32 %153, %157
  store i32 %158, i32* %6, align 4
  %159 = load i32, i32* %6, align 4
  %160 = call i32 (i8*, ...) @printf(i8* getelementptr inbounds ([3 x i8], [3 x i8]* @.str, i64 0, i64 0), i32 %159)
  %161 = load i32, i32* %1, align 4
  ret i32 %161
}

declare dso_local i32 @__isoc99_scanf(i8*, ...) #1

declare dso_local i32 @printf(i8*, ...) #1


!llvm.module.flags = !{!0}
!llvm.ident = !{!1}

!0 = !{i32 1, !"wchar_size", i32 4}
!1 = !{!"clang version 10.0.0-4ubuntu1 "}
